; Function Attrs: mustprogress nofree norecurse nosync nounwind memory(read, argmem: readwrite, inaccessiblemem: none) uwtable
define hidden void @_ZN20SubstitutionResolver5visitEPP11Instruction(ptr nocapture nonnull readnone align 8 %0, ptr nocapture noundef %1) unnamed_addr #10 align 2 {
  %3 = load ptr, ptr %1, align 8
  %.not = icmp eq ptr %3, null
  br i1 %.not, label %10, label %tailrecurse.i

tailrecurse.i:                                    ; preds = %2, %tailrecurse.i
  %.tr.i = phi ptr [ %5, %tailrecurse.i ], [ %3, %2 ]
  %4 = getelementptr inbounds i8, ptr %.tr.i, i64 40
  %5 = load ptr, ptr %4, align 8
  %6 = icmp eq ptr %5, null
  br i1 %6, label %_ZN11Instruction5substEv.exit, label %tailrecurse.i

_ZN11Instruction5substEv.exit:                    ; preds = %tailrecurse.i
  %.not7 = icmp eq ptr %.tr.i, %3
  br i1 %.not7, label %10, label %tailrecurse.i8

tailrecurse.i8:                                   ; preds = %_ZN11Instruction5substEv.exit, %tailrecurse.i8
  %.tr.i9 = phi ptr [ %8, %tailrecurse.i8 ], [ %3, %_ZN11Instruction5substEv.exit ]
  %7 = getelementptr inbounds i8, ptr %.tr.i9, i64 40
  %8 = load ptr, ptr %7, align 8
  %9 = icmp eq ptr %8, null
  br i1 %9, label %_ZN11Instruction5substEv.exit10, label %tailrecurse.i8

_ZN11Instruction5substEv.exit10:                  ; preds = %tailrecurse.i8
  store ptr %.tr.i9, ptr %1, align 8
  br label %10

10:                                               ; preds = %_ZN11Instruction5substEv.exit, %_ZN11Instruction5substEv.exit10, %2
  ret void
}